target datalayout = "e-m:e-p270:32:32-p271:32:32-p272:64:64-i64:64-i128:128-f80:128-n8:16:32:64-S128"
target triple = "x86_64-pc-linux-gnu"

%struct.cli_matcher = type { i32, ptr, ptr, ptr, ptr, i32, i32, i32, i32, i32, %struct.cli_hash_patt, %struct.cli_hash_wild, i32, i32, i32, i32, i32, ptr, ptr, ptr, ptr, ptr, ptr, i32, i32, i8, i8, ptr, i16, i8, i32, ptr, i32, i32, i32, ptr, ptr, i32, ptr, i64, i64, ptr }
%struct.cli_hash_patt = type { [3 x %struct.cli_htu32] }
%struct.cli_htu32 = type { ptr, i64, i64, i64 }
%struct.cli_hash_wild = type { [3 x %struct.cli_sz_hash] }
%struct.cli_sz_hash = type { ptr, ptr, i32 }

; Function Attrs: nounwind uwtable
define i32 @cli_hm_have_size(ptr noundef %0, i32 noundef %1, i32 noundef %2) #0 {
  %4 = alloca ptr, align 8
  %5 = alloca i32, align 4
  %6 = alloca i32, align 4
  store ptr %0, ptr %4, align 8
  store i32 %1, ptr %5, align 4
  store i32 %2, ptr %6, align 4
  %7 = load i32, ptr %6, align 4
  %8 = icmp ne i32 %7, 0
  br i1 %8, label %9, label %35

9:                                                ; preds = %3
  %10 = load i32, ptr %6, align 4
  %11 = icmp ne i32 %10, -1
  br i1 %11, label %12, label %35

12:                                               ; preds = %9
  %13 = load ptr, ptr %4, align 8
  %14 = icmp ne ptr %13, null
  br i1 %14, label %15, label %35

15:                                               ; preds = %12
  %16 = load ptr, ptr %4, align 8
  %17 = getelementptr inbounds %struct.cli_matcher, ptr %16, i32 0, i32 10
  %18 = getelementptr inbounds %struct.cli_hash_patt, ptr %17, i32 0, i32 0
  %19 = load i32, ptr %5, align 4
  %20 = zext i32 %19 to i64
  %21 = getelementptr inbounds [3 x %struct.cli_htu32], ptr %18, i64 0, i64 %20
  %22 = getelementptr inbounds %struct.cli_htu32, ptr %21, i32 0, i32 1
  %23 = load i64, ptr %22, align 8
  %24 = icmp ne i64 %23, 0
  br i1 %24, label %25, label %35

25:                                               ; preds = %15
  %26 = load ptr, ptr %4, align 8
  %27 = getelementptr inbounds %struct.cli_matcher, ptr %26, i32 0, i32 10
  %28 = getelementptr inbounds %struct.cli_hash_patt, ptr %27, i32 0, i32 0
  %29 = load i32, ptr %5, align 4
  %30 = zext i32 %29 to i64
  %31 = getelementptr inbounds [3 x %struct.cli_htu32], ptr %28, i64 0, i64 %30
  %32 = load i32, ptr %6, align 4
  %33 = call ptr @cli_htu32_find(ptr noundef %31, i32 noundef %32)
  %34 = icmp ne ptr %33, null
  br label %35

35:                                               ; preds = %25, %15, %12, %9, %3
  %36 = phi i1 [ false, %15 ], [ false, %12 ], [ false, %9 ], [ false, %3 ], [ %34, %25 ]
  %37 = zext i1 %36 to i32
  ret i32 %37
}