; Function Attrs: nounwind uwtable
define i32 @cli_hm_have_size(ptr noundef %0, i32 noundef %1, i32 noundef %2) local_unnamed_addr #0 {
  %4 = add i32 %2, -1
  %or.cond = icmp ult i32 %4, -2
  %5 = icmp ne ptr %0, null
  %or.cond3 = and i1 %5, %or.cond
  br i1 %or.cond3, label %6, label %16

6:                                                ; preds = %3
  %7 = getelementptr inbounds i8, ptr %0, i64 64
  %8 = zext i32 %1 to i64
  %9 = getelementptr inbounds [3 x %struct.cli_htu32], ptr %7, i64 0, i64 %8
  %10 = getelementptr inbounds i8, ptr %9, i64 8
  %11 = load i64, ptr %10, align 8
  %.not = icmp eq i64 %11, 0
  br i1 %.not, label %16, label %12

12:                                               ; preds = %6
  %13 = tail call ptr @cli_htu32_find(ptr noundef nonnull %9, i32 noundef %2) #7
  %14 = icmp ne ptr %13, null
  %15 = zext i1 %14 to i32
  br label %16

16:                                               ; preds = %12, %6, %3
  %17 = phi i32 [ 0, %6 ], [ 0, %3 ], [ %15, %12 ]
  ret i32 %17
}